; Function Attrs: mustprogress uwtable
define void @_ZNK15ColladaIOPlugin20exportMaskCapabilityERK7QStringRiS3_(ptr nocapture nonnull readnone align 8 %0, ptr noundef nonnull align 8 dereferenceable(8) %1, ptr nocapture noundef nonnull writeonly align 4 dereferenceable(4) %2, ptr nocapture noundef nonnull writeonly align 4 dereferenceable(4) %3) unnamed_addr #9 align 2 personality ptr @__gxx_personality_v0 {
  %5 = alloca %class.QString, align 8
  %6 = alloca %class.QString, align 8
  call void @_ZN7QString14toUpper_helperERKS_(ptr dead_on_unwind nonnull writable sret(%class.QString) align 8 %5, ptr noundef nonnull align 8 dereferenceable(8) %1)
  invoke void @_ZNK11QMetaObject2trEPKcS1_i(ptr dead_on_unwind nonnull writable sret(%class.QString) align 8 %6, ptr noundef nonnull align 8 dereferenceable(48) @_ZN15ColladaIOPlugin16staticMetaObjectE, ptr noundef nonnull @.str.8, ptr noundef null, i32 noundef -1)
          to label %_ZN15ColladaIOPlugin2trEPKcS1_i.exit unwind label %17

_ZN15ColladaIOPlugin2trEPKcS1_i.exit:             ; preds = %4
  %7 = call noundef zeroext i1 @_ZeqRK7QStringS1_(ptr noundef nonnull align 8 dereferenceable(8) %5, ptr noundef nonnull align 8 dereferenceable(8) %6) #24
  %8 = load ptr, ptr %6, align 8
  %9 = load atomic i32, ptr %8 monotonic, align 4
  switch i32 %9, label %_ZN9QtPrivate8RefCount5derefEv.exit.i [
    i32 0, label %_ZN9QtPrivate8RefCount5derefEv.exit.thread2.i
    i32 -1, label %_ZN7QStringD2Ev.exit
  ]

_ZN9QtPrivate8RefCount5derefEv.exit.i:            ; preds = %_ZN15ColladaIOPlugin2trEPKcS1_i.exit
  %10 = atomicrmw sub ptr %8, i32 1 seq_cst, align 4
  %.not.i = icmp eq i32 %10, 1
  br i1 %.not.i, label %_ZN9QtPrivate8RefCount5derefEv.exit._ZN9QtPrivate8RefCount5derefEv.exit.thread2_crit_edge.i, label %_ZN7QStringD2Ev.exit

_ZN9QtPrivate8RefCount5derefEv.exit._ZN9QtPrivate8RefCount5derefEv.exit.thread2_crit_edge.i: ; preds = %_ZN9QtPrivate8RefCount5derefEv.exit.i
  %.pre.i = load ptr, ptr %6, align 8
  br label %_ZN9QtPrivate8RefCount5derefEv.exit.thread2.i

_ZN9QtPrivate8RefCount5derefEv.exit.thread2.i:    ; preds = %_ZN9QtPrivate8RefCount5derefEv.exit._ZN9QtPrivate8RefCount5derefEv.exit.thread2_crit_edge.i, %_ZN15ColladaIOPlugin2trEPKcS1_i.exit
  %11 = phi ptr [ %.pre.i, %_ZN9QtPrivate8RefCount5derefEv.exit._ZN9QtPrivate8RefCount5derefEv.exit.thread2_crit_edge.i ], [ %8, %_ZN15ColladaIOPlugin2trEPKcS1_i.exit ]
  call void @_ZN10QArrayData10deallocateEPS_mm(ptr noundef %11, i64 noundef 2, i64 noundef 8) #24
  br label %_ZN7QStringD2Ev.exit

_ZN7QStringD2Ev.exit:                             ; preds = %_ZN15ColladaIOPlugin2trEPKcS1_i.exit, %_ZN9QtPrivate8RefCount5derefEv.exit.i, %_ZN9QtPrivate8RefCount5derefEv.exit.thread2.i
  %12 = load ptr, ptr %5, align 8
  %13 = load atomic i32, ptr %12 monotonic, align 4
  switch i32 %13, label %_ZN9QtPrivate8RefCount5derefEv.exit.i5 [
    i32 0, label %_ZN9QtPrivate8RefCount5derefEv.exit.thread2.i4
    i32 -1, label %_ZN7QStringD2Ev.exit9
  ]

_ZN9QtPrivate8RefCount5derefEv.exit.i5:           ; preds = %_ZN7QStringD2Ev.exit
  %14 = atomicrmw sub ptr %12, i32 1 seq_cst, align 4
  %.not.i6 = icmp eq i32 %14, 1
  br i1 %.not.i6, label %_ZN9QtPrivate8RefCount5derefEv.exit._ZN9QtPrivate8RefCount5derefEv.exit.thread2_crit_edge.i7, label %_ZN7QStringD2Ev.exit9

_ZN9QtPrivate8RefCount5derefEv.exit._ZN9QtPrivate8RefCount5derefEv.exit.thread2_crit_edge.i7: ; preds = %_ZN9QtPrivate8RefCount5derefEv.exit.i5
  %.pre.i8 = load ptr, ptr %5, align 8
  br label %_ZN9QtPrivate8RefCount5derefEv.exit.thread2.i4

_ZN9QtPrivate8RefCount5derefEv.exit.thread2.i4:   ; preds = %_ZN9QtPrivate8RefCount5derefEv.exit._ZN9QtPrivate8RefCount5derefEv.exit.thread2_crit_edge.i7, %_ZN7QStringD2Ev.exit
  %15 = phi ptr [ %.pre.i8, %_ZN9QtPrivate8RefCount5derefEv.exit._ZN9QtPrivate8RefCount5derefEv.exit.thread2_crit_edge.i7 ], [ %12, %_ZN7QStringD2Ev.exit ]
  call void @_ZN10QArrayData10deallocateEPS_mm(ptr noundef %15, i64 noundef 2, i64 noundef 8) #24
  br label %_ZN7QStringD2Ev.exit9

_ZN7QStringD2Ev.exit9:                            ; preds = %_ZN7QStringD2Ev.exit, %_ZN9QtPrivate8RefCount5derefEv.exit.i5, %_ZN9QtPrivate8RefCount5derefEv.exit.thread2.i4
  br i1 %7, label %16, label %19

16:                                               ; preds = %_ZN7QStringD2Ev.exit9
  store i32 20533, ptr %3, align 4
  store i32 20533, ptr %2, align 4
  br label %19

17:                                               ; preds = %4
  %18 = landingpad { ptr, i32 }
          cleanup
  call void @_ZN7QStringD2Ev(ptr noundef nonnull align 8 dereferenceable(8) %5) #24
  resume { ptr, i32 } %18

19:                                               ; preds = %16, %_ZN7QStringD2Ev.exit9
  ret void
}